; Function Attrs: mustprogress uwtable
define void @_ZNK4base8FilePath23StripTrailingSeparatorsEv(ptr dead_on_unwind noalias writable sret(%"class.base::FilePath") align 8 %0, ptr noundef nonnull readonly align 8 captures(none) dereferenceable(32) %1) local_unnamed_addr #1 align 2 personality ptr @__gxx_personality_v0 {
  %3 = load ptr, ptr %1, align 8, !tbaa !13
  %4 = getelementptr inbounds nuw i8, ptr %1, i64 8
  %5 = load i64, ptr %4, align 8, !tbaa !9
  tail call void @_ZN4base8FilePathC1ENS_16BasicStringPieceINSt7__cxx1112basic_stringIcSt11char_traitsIcESaIcEEEEE(ptr noundef nonnull align 8 dereferenceable(32) %0, ptr %3, i64 %5)
  %6 = getelementptr inbounds nuw i8, ptr %0, i64 8
  %7 = load i64, ptr %6, align 8, !tbaa !9
  %8 = icmp ugt i64 %7, 1
  br i1 %8, label %.lr.ph.i, label %_ZN4base8FilePath31StripTrailingSeparatorsInternalEv.exit

.lr.ph.i:                                         ; preds = %2
  %9 = load i64, ptr @_ZN4base8FilePath17kSeparatorsLengthE, align 8, !tbaa !14
  %10 = add i64 %9, -1
  %.not7.not.i.i = icmp eq i64 %10, 0
  br i1 %.not7.not.i.i, label %_ZN4base8FilePath31StripTrailingSeparatorsInternalEv.exit, label %.lr.ph.i.preheader.i

.lr.ph.i.preheader.i:                             ; preds = %.lr.ph.i, %_ZN4base8FilePath11IsSeparatorEc.exit18.i
  %.023.i = phi i64 [ %11, %_ZN4base8FilePath11IsSeparatorEc.exit18.i ], [ %7, %.lr.ph.i ]
  %.01122.i = phi i64 [ %.1.i, %_ZN4base8FilePath11IsSeparatorEc.exit18.i ], [ -1, %.lr.ph.i ]
  %11 = add i64 %.023.i, -1
  %12 = load ptr, ptr %0, align 8, !tbaa !13
  %13 = getelementptr inbounds nuw i8, ptr %12, i64 %11
  %14 = load i8, ptr %13, align 1, !tbaa !12
  br label %.lr.ph.i.i

15:                                               ; preds = %.lr.ph.i.i
  %16 = add nuw i64 %.058.i.i, 1
  %exitcond.not.i.i = icmp eq i64 %16, %10
  br i1 %exitcond.not.i.i, label %_ZN4base8FilePath31StripTrailingSeparatorsInternalEv.exit, label %.lr.ph.i.i, !llvm.loop !15

.lr.ph.i.i:                                       ; preds = %15, %.lr.ph.i.preheader.i
  %.058.i.i = phi i64 [ %16, %15 ], [ 0, %.lr.ph.i.preheader.i ]
  %17 = getelementptr inbounds nuw [0 x i8], ptr @_ZN4base8FilePath11kSeparatorsE, i64 0, i64 %.058.i.i
  %18 = load i8, ptr %17, align 1, !tbaa !12
  %19 = icmp eq i8 %14, %18
  br i1 %19, label %_ZN4base8FilePath11IsSeparatorEc.exit.i, label %15

_ZN4base8FilePath11IsSeparatorEc.exit.i:          ; preds = %.lr.ph.i.i
  %.not.i = icmp ne i64 %.023.i, 2
  %20 = icmp eq i64 %.01122.i, 3
  %or.cond.i = select i1 %.not.i, i1 true, i1 %20
  br i1 %or.cond.i, label %_ZN4base8FilePath11IsSeparatorEc.exit18.thread.i, label %21

21:                                               ; preds = %_ZN4base8FilePath11IsSeparatorEc.exit.i
  %22 = load i8, ptr %12, align 1, !tbaa !12
  br label %.lr.ph.i14.i

23:                                               ; preds = %.lr.ph.i14.i
  %24 = add nuw i64 %.058.i15.i, 1
  %exitcond.not.i16.i = icmp eq i64 %24, %10
  br i1 %exitcond.not.i16.i, label %_ZN4base8FilePath11IsSeparatorEc.exit18.thread.i, label %.lr.ph.i14.i, !llvm.loop !15

.lr.ph.i14.i:                                     ; preds = %23, %21
  %.058.i15.i = phi i64 [ %24, %23 ], [ 0, %21 ]
  %25 = getelementptr inbounds nuw [0 x i8], ptr @_ZN4base8FilePath11kSeparatorsE, i64 0, i64 %.058.i15.i
  %26 = load i8, ptr %25, align 1, !tbaa !12
  %27 = icmp eq i8 %22, %26
  br i1 %27, label %_ZN4base8FilePath11IsSeparatorEc.exit18.i, label %23

_ZN4base8FilePath11IsSeparatorEc.exit18.thread.i: ; preds = %23, %_ZN4base8FilePath11IsSeparatorEc.exit.i
  invoke void @_ZNSt7__cxx1112basic_stringIcSt11char_traitsIcESaIcEE6resizeEmc(ptr noundef nonnull align 8 dereferenceable(32) %0, i64 noundef %11, i8 noundef signext 0)
          to label %_ZN4base8FilePath11IsSeparatorEc.exit18.i unwind label %29

_ZN4base8FilePath11IsSeparatorEc.exit18.i:        ; preds = %.lr.ph.i14.i, %_ZN4base8FilePath11IsSeparatorEc.exit18.thread.i
  %.1.i = phi i64 [ %.023.i, %_ZN4base8FilePath11IsSeparatorEc.exit18.thread.i ], [ %.01122.i, %.lr.ph.i14.i ]
  %28 = icmp ugt i64 %11, 1
  br i1 %28, label %.lr.ph.i.preheader.i, label %_ZN4base8FilePath31StripTrailingSeparatorsInternalEv.exit, !llvm.loop !32

29:                                               ; preds = %_ZN4base8FilePath11IsSeparatorEc.exit18.thread.i
  %30 = landingpad { ptr, i32 }
          cleanup
  tail call void @_ZN4base8FilePathD1Ev(ptr noundef nonnull align 8 dereferenceable(32) %0) #22
  resume { ptr, i32 } %30

_ZN4base8FilePath31StripTrailingSeparatorsInternalEv.exit: ; preds = %_ZN4base8FilePath11IsSeparatorEc.exit18.i, %15, %.lr.ph.i, %2
  ret void
}